; Function Attrs: nounwind uwtable
define dso_local signext i8 @func_volatile(i32 noundef %0) local_unnamed_addr #0 {
  %2 = zext i32 %0 to i64
  %3 = tail call ptr @SearchSysCache1(i32 noundef 47, i64 noundef %2) #8
  %.not = icmp eq ptr %3, null
  br i1 %.not, label %4, label %7

4:                                                ; preds = %1
  %5 = tail call zeroext i1 @errstart_cold(i32 noundef 21, ptr noundef null) #9
  tail call void @llvm.assume(i1 %5)
  %6 = tail call i32 (ptr, ...) @errmsg_internal(ptr noundef nonnull @.str.11, i32 noundef %0) #8
  tail call void @errfinish(ptr noundef nonnull @.str.1, i32 noundef 1814, ptr noundef nonnull @__func__.func_volatile) #8
  unreachable

7:                                                ; preds = %1
  %8 = getelementptr i8, ptr %3, i64 16
  %.val = load ptr, ptr %8, align 8
  %9 = getelementptr inbounds nuw i8, ptr %.val, i64 22
  %10 = load i8, ptr %9, align 2
  %11 = zext i8 %10 to i64
  %12 = getelementptr inbounds nuw i8, ptr %.val, i64 %11
  %13 = getelementptr inbounds nuw i8, ptr %12, i64 101
  %14 = load i8, ptr %13, align 1
  tail call void @ReleaseSysCache(ptr noundef nonnull %3) #8
  ret i8 %14
}